; Function Attrs: mustprogress uwtable
define noundef i32 @_ZN6icu_7714MessagePattern20validateArgumentNameERKNS_13UnicodeStringE(ptr noundef nonnull align 8 dereferenceable(64) %0) local_unnamed_addr #2 align 2 {
  %2 = getelementptr inbounds nuw i8, ptr %0, i64 8
  %3 = load i16, ptr %2, align 8, !tbaa !19
  %4 = and i16 %3, 17
  %.not.i = icmp eq i16 %4, 0
  br i1 %.not.i, label %5, label %_ZNK6icu_7713UnicodeString9getBufferEv.exit

5:                                                ; preds = %1
  %6 = and i16 %3, 2
  %.not2.i = icmp eq i16 %6, 0
  br i1 %.not2.i, label %9, label %7

7:                                                ; preds = %5
  %8 = getelementptr inbounds nuw i8, ptr %0, i64 10
  br label %_ZNK6icu_7713UnicodeString9getBufferEv.exit

9:                                                ; preds = %5
  %10 = getelementptr inbounds nuw i8, ptr %0, i64 24
  %11 = load ptr, ptr %10, align 8, !tbaa !19
  br label %_ZNK6icu_7713UnicodeString9getBufferEv.exit

_ZNK6icu_7713UnicodeString9getBufferEv.exit:      ; preds = %1, %7, %9
  %.0.i = phi ptr [ %8, %7 ], [ %11, %9 ], [ null, %1 ]
  %12 = icmp slt i16 %3, 0
  %13 = ashr i16 %3, 5
  %14 = sext i16 %13 to i32
  %15 = getelementptr inbounds nuw i8, ptr %0, i64 12
  %16 = load i32, ptr %15, align 4
  %17 = select i1 %12, i32 %16, i32 %14
  %18 = tail call noundef signext i8 @_ZN6icu_7712PatternProps12isIdentifierEPKDsi(ptr noundef %.0.i, i32 noundef %17)
  %.not = icmp eq i8 %18, 0
  br i1 %.not, label %_ZN6icu_7714MessagePattern14parseArgNumberERKNS_13UnicodeStringEii.exit, label %19

19:                                               ; preds = %_ZNK6icu_7713UnicodeString9getBufferEv.exit
  %20 = load i16, ptr %2, align 8, !tbaa !19
  %21 = icmp slt i16 %20, 0
  %22 = ashr i16 %20, 5
  %23 = sext i16 %22 to i32
  %24 = load i32, ptr %15, align 4
  %25 = select i1 %21, i32 %24, i32 %23
  %.not.i4 = icmp sgt i32 %25, 0
  br i1 %.not.i4, label %_ZNK6icu_7713UnicodeString6charAtEi.exit.i, label %_ZN6icu_7714MessagePattern14parseArgNumberERKNS_13UnicodeStringEii.exit

_ZNK6icu_7713UnicodeString6charAtEi.exit.i:       ; preds = %19
  %26 = and i16 %20, 2
  %.not.i.i.i.i = icmp eq i16 %26, 0
  %27 = getelementptr inbounds nuw i8, ptr %0, i64 10
  %28 = getelementptr inbounds nuw i8, ptr %0, i64 24
  %29 = load ptr, ptr %28, align 8
  %30 = select i1 %.not.i.i.i.i, ptr %29, ptr %27
  %31 = load i16, ptr %30, align 2, !tbaa !30
  %32 = zext i16 %31 to i32
  %33 = icmp eq i16 %31, 48
  br i1 %33, label %34, label %36

34:                                               ; preds = %_ZNK6icu_7713UnicodeString6charAtEi.exit.i
  %35 = icmp eq i32 %25, 1
  br i1 %35, label %_ZN6icu_7714MessagePattern14parseArgNumberERKNS_13UnicodeStringEii.exit, label %.lr.ph.i.preheader

36:                                               ; preds = %_ZNK6icu_7713UnicodeString6charAtEi.exit.i
  %37 = add i16 %31, -49
  %or.cond.i = icmp ult i16 %37, 9
  br i1 %or.cond.i, label %38, label %_ZN6icu_7714MessagePattern14parseArgNumberERKNS_13UnicodeStringEii.exit

38:                                               ; preds = %36
  %39 = add nsw i32 %32, -48
  %.not6 = icmp eq i32 %25, 1
  br i1 %.not6, label %_ZN6icu_7714MessagePattern14parseArgNumberERKNS_13UnicodeStringEii.exit, label %.lr.ph.i.preheader

.lr.ph.i.preheader:                               ; preds = %34, %38
  %.0.i512 = phi i8 [ 0, %38 ], [ 1, %34 ]
  %.026.i11 = phi i32 [ %39, %38 ], [ 0, %34 ]
  %wide.trip.count = zext nneg i32 %25 to i64
  br label %.lr.ph.i

.lr.ph.i:                                         ; preds = %.lr.ph.i.preheader, %43
  %indvars.iv.i = phi i64 [ %indvars.iv.next.i, %43 ], [ 1, %.lr.ph.i.preheader ]
  %.149.i = phi i8 [ %spec.select.i, %43 ], [ %.0.i512, %.lr.ph.i.preheader ]
  %.12748.i = phi i32 [ %48, %43 ], [ %.026.i11, %.lr.ph.i.preheader ]
  %.12748.i.fr = freeze i32 %.12748.i
  %indvars.iv.next.i = add nuw nsw i64 %indvars.iv.i, 1
  %exitcond.not = icmp eq i64 %indvars.iv.i, %wide.trip.count
  br i1 %exitcond.not, label %_ZN6icu_7714MessagePattern14parseArgNumberERKNS_13UnicodeStringEii.exit, label %_ZNK6icu_7713UnicodeString6charAtEi.exit38.i

_ZNK6icu_7713UnicodeString6charAtEi.exit38.i:     ; preds = %.lr.ph.i
  %40 = getelementptr inbounds nuw i16, ptr %30, i64 %indvars.iv.i
  %41 = load i16, ptr %40, align 2, !tbaa !30
  %42 = add i16 %41, -48
  %or.cond5.i = icmp ult i16 %42, 10
  br i1 %or.cond5.i, label %43, label %_ZN6icu_7714MessagePattern14parseArgNumberERKNS_13UnicodeStringEii.exit

43:                                               ; preds = %_ZNK6icu_7713UnicodeString6charAtEi.exit38.i
  %44 = zext nneg i16 %41 to i32
  %45 = icmp sgt i32 %.12748.i.fr, 214748363
  %spec.select.i = select i1 %45, i8 1, i8 %.149.i
  %46 = mul nsw i32 %.12748.i.fr, 10
  %47 = add i32 %46, -48
  %48 = add i32 %47, %44
  %lftr.wideiv = trunc i64 %indvars.iv.next.i to i32
  %exitcond7 = icmp eq i32 %25, %lftr.wideiv
  br i1 %exitcond7, label %._crit_edge.i, label %.lr.ph.i, !llvm.loop !60

._crit_edge.i:                                    ; preds = %43
  %.not35.i = icmp eq i8 %spec.select.i, 0
  %spec.select = select i1 %.not35.i, i32 %48, i32 -2
  br label %_ZN6icu_7714MessagePattern14parseArgNumberERKNS_13UnicodeStringEii.exit

_ZN6icu_7714MessagePattern14parseArgNumberERKNS_13UnicodeStringEii.exit: ; preds = %_ZNK6icu_7713UnicodeString6charAtEi.exit38.i, %.lr.ph.i, %._crit_edge.i, %38, %36, %34, %19, %_ZNK6icu_7713UnicodeString9getBufferEv.exit
  %.0 = phi i32 [ -2, %_ZNK6icu_7713UnicodeString9getBufferEv.exit ], [ -2, %19 ], [ 0, %34 ], [ -1, %36 ], [ %39, %38 ], [ %spec.select, %._crit_edge.i ], [ -1, %.lr.ph.i ], [ -1, %_ZNK6icu_7713UnicodeString6charAtEi.exit38.i ]
  ret i32 %.0
}